; Function Attrs: null_pointer_is_valid sspstrong uwtable
define internal noundef zeroext i16 @de_auth_fail_param(ptr noundef %0, ptr noundef %1, ptr noundef %2, i32 noundef %3, i32 noundef %4, ptr readnone captures(none) %5, i32 %6) #1 {
  %8 = load i32, ptr @hf_gsm_a_dtap_auts, align 4
  %9 = tail call ptr @proto_tree_add_item(ptr noundef %1, i32 noundef %8, ptr noundef %0, i32 noundef %3, i32 noundef %4, i32 noundef 0)
  %10 = load i32, ptr getelementptr inbounds nuw (i8, ptr @ett_gsm_dtap_elem, i64 16), align 16
  %11 = tail call ptr @proto_item_add_subtree(ptr noundef %9, i32 noundef %10)
  %12 = icmp eq i32 %4, 14
  br i1 %12, label %13, label %19

13:                                               ; preds = %7
  %14 = load i32, ptr @hf_gsm_a_dtap_auts_sqn_ms_xor_ak, align 4
  %15 = tail call ptr @proto_tree_add_item(ptr noundef %11, i32 noundef %14, ptr noundef %0, i32 noundef %3, i32 noundef 6, i32 noundef 0)
  %16 = load i32, ptr @hf_gsm_a_dtap_auts_mac_s, align 4
  %17 = add i32 %3, 6
  %18 = tail call ptr @proto_tree_add_item(ptr noundef %11, i32 noundef %16, ptr noundef %0, i32 noundef %17, i32 noundef 8, i32 noundef 0)
  br label %21

19:                                               ; preds = %7
  %20 = tail call ptr @expert_add_info(ptr noundef %2, ptr noundef %9, ptr noundef nonnull @ei_gsm_a_dtap_auts)
  br label %21

21:                                               ; preds = %19, %13
  %22 = trunc i32 %4 to i16
  ret i16 %22
}